;CodeVisionAVR C Compiler V1.24.6 Standard
;(C) Copyright 1998-2005 Pavel Haiduc, HP InfoTech s.r.l.
;http://www.hpinfotech.com
;e-mail:office@hpinfotech.com

;Chip type              : ATmega8
;Program type           : Application
;Clock frequency        : 8.000000 MHz
;Memory model           : Small
;Optimize for           : Size
;(s)printf features     : int, width
;(s)scanf features      : int, width
;External SRAM size     : 0
;Data Stack size        : 256 byte(s)
;Heap size              : 0 byte(s)
;Promote char to int    : No
;char is unsigned       : No
;8 bit enums            : Yes
;Word align FLASH struct: Yes
;Enhanced core instructions    : On
;Automatic register allocation : On

	.EQU UDRE=0x5
	.EQU RXC=0x7
	.EQU USR=0xB
	.EQU UDR=0xC
	.EQU SPSR=0xE
	.EQU SPDR=0xF
	.EQU EERE=0x0
	.EQU EEWE=0x1
	.EQU EEMWE=0x2
	.EQU EECR=0x1C
	.EQU EEDR=0x1D
	.EQU EEARL=0x1E
	.EQU EEARH=0x1F
	.EQU WDTCR=0x21
	.EQU MCUCR=0x35
	.EQU GICR=0x3B
	.EQU SPL=0x3D
	.EQU SPH=0x3E
	.EQU SREG=0x3F

	.DEF R0X0=R0
	.DEF R0X1=R1
	.DEF R0X2=R2
	.DEF R0X3=R3
	.DEF R0X4=R4
	.DEF R0X5=R5
	.DEF R0X6=R6
	.DEF R0X7=R7
	.DEF R0X8=R8
	.DEF R0X9=R9
	.DEF R0XA=R10
	.DEF R0XB=R11
	.DEF R0XC=R12
	.DEF R0XD=R13
	.DEF R0XE=R14
	.DEF R0XF=R15
	.DEF R0X10=R16
	.DEF R0X11=R17
	.DEF R0X12=R18
	.DEF R0X13=R19
	.DEF R0X14=R20
	.DEF R0X15=R21
	.DEF R0X16=R22
	.DEF R0X17=R23
	.DEF R0X18=R24
	.DEF R0X19=R25
	.DEF R0X1A=R26
	.DEF R0X1B=R27
	.DEF R0X1C=R28
	.DEF R0X1D=R29
	.DEF R0X1E=R30
	.DEF R0X1F=R31

	.EQU __se_bit=0x80
	.EQU __sm_mask=0x70
	.EQU __sm_adc_noise_red=0x10
	.EQU __sm_powerdown=0x20
	.EQU __sm_powersave=0x30
	.EQU __sm_standby=0x60
	.EQU __sm_ext_standby=0x70

	.MACRO __CPD1N
	CPI  R30,LOW(@0)
	LDI  R26,HIGH(@0)
	CPC  R31,R26
	LDI  R26,BYTE3(@0)
	CPC  R22,R26
	LDI  R26,BYTE4(@0)
	CPC  R23,R26
	.ENDM

	.MACRO __CPD2N
	CPI  R26,LOW(@0)
	LDI  R30,HIGH(@0)
	CPC  R27,R30
	LDI  R30,BYTE3(@0)
	CPC  R24,R30
	LDI  R30,BYTE4(@0)
	CPC  R25,R30
	.ENDM

	.MACRO __CPWRR
	CP   R@0,R@2
	CPC  R@1,R@3
	.ENDM

	.MACRO __CPWRN
	CPI  R@0,LOW(@2)
	LDI  R30,HIGH(@2)
	CPC  R@1,R30
	.ENDM

	.MACRO __ADDD1N
	SUBI R30,LOW(-@0)
	SBCI R31,HIGH(-@0)
	SBCI R22,BYTE3(-@0)
	SBCI R23,BYTE4(-@0)
	.ENDM

	.MACRO __ADDD2N
	SUBI R26,LOW(-@0)
	SBCI R27,HIGH(-@0)
	SBCI R24,BYTE3(-@0)
	SBCI R25,BYTE4(-@0)
	.ENDM

	.MACRO __SUBD1N
	SUBI R30,LOW(@0)
	SBCI R31,HIGH(@0)
	SBCI R22,BYTE3(@0)
	SBCI R23,BYTE4(@0)
	.ENDM

	.MACRO __SUBD2N
	SUBI R26,LOW(@0)
	SBCI R27,HIGH(@0)
	SBCI R24,BYTE3(@0)
	SBCI R25,BYTE4(@0)
	.ENDM

	.MACRO __ANDD1N
	ANDI R30,LOW(@0)
	ANDI R31,HIGH(@0)
	ANDI R22,BYTE3(@0)
	ANDI R23,BYTE4(@0)
	.ENDM

	.MACRO __ORD1N
	ORI  R30,LOW(@0)
	ORI  R31,HIGH(@0)
	ORI  R22,BYTE3(@0)
	ORI  R23,BYTE4(@0)
	.ENDM

	.MACRO __DELAY_USB
	LDI  R24,LOW(@0)
__DELAY_USB_LOOP:
	DEC  R24
	BRNE __DELAY_USB_LOOP
	.ENDM

	.MACRO __DELAY_USW
	LDI  R24,LOW(@0)
	LDI  R25,HIGH(@0)
__DELAY_USW_LOOP:
	SBIW R24,1
	BRNE __DELAY_USW_LOOP
	.ENDM

	.MACRO __CLRD1S
	LDI  R30,0
	STD  Y+@0,R30
	STD  Y+@0+1,R30
	STD  Y+@0+2,R30
	STD  Y+@0+3,R30
	.ENDM

	.MACRO __GETD1S
	LDD  R30,Y+@0
	LDD  R31,Y+@0+1
	LDD  R22,Y+@0+2
	LDD  R23,Y+@0+3
	.ENDM

	.MACRO __PUTD1S
	STD  Y+@0,R30
	STD  Y+@0+1,R31
	STD  Y+@0+2,R22
	STD  Y+@0+3,R23
	.ENDM

	.MACRO __POINTB1MN
	LDI  R30,LOW(@0+@1)
	.ENDM

	.MACRO __POINTW1MN
	LDI  R30,LOW(@0+@1)
	LDI  R31,HIGH(@0+@1)
	.ENDM

	.MACRO __POINTW1FN
	LDI  R30,LOW(2*@0+@1)
	LDI  R31,HIGH(2*@0+@1)
	.ENDM

	.MACRO __POINTB2MN
	LDI  R26,LOW(@0+@1)
	.ENDM

	.MACRO __POINTW2MN
	LDI  R26,LOW(@0+@1)
	LDI  R27,HIGH(@0+@1)
	.ENDM

	.MACRO __POINTBRM
	LDI  R@0,LOW(@1)
	.ENDM

	.MACRO __POINTWRM
	LDI  R@0,LOW(@2)
	LDI  R@1,HIGH(@2)
	.ENDM

	.MACRO __POINTBRMN
	LDI  R@0,LOW(@1+@2)
	.ENDM

	.MACRO __POINTWRMN
	LDI  R@0,LOW(@2+@3)
	LDI  R@1,HIGH(@2+@3)
	.ENDM

	.MACRO __GETD1N
	LDI  R30,LOW(@0)
	LDI  R31,HIGH(@0)
	LDI  R22,BYTE3(@0)
	LDI  R23,BYTE4(@0)
	.ENDM

	.MACRO __GETD2N
	LDI  R26,LOW(@0)
	LDI  R27,HIGH(@0)
	LDI  R24,BYTE3(@0)
	LDI  R25,BYTE4(@0)
	.ENDM

	.MACRO __GETD2S
	LDD  R26,Y+@0
	LDD  R27,Y+@0+1
	LDD  R24,Y+@0+2
	LDD  R25,Y+@0+3
	.ENDM

	.MACRO __GETB1MN
	LDS  R30,@0+@1
	.ENDM

	.MACRO __GETW1MN
	LDS  R30,@0+@1
	LDS  R31,@0+@1+1
	.ENDM

	.MACRO __GETD1MN
	LDS  R30,@0+@1
	LDS  R31,@0+@1+1
	LDS  R22,@0+@1+2
	LDS  R23,@0+@1+3
	.ENDM

	.MACRO __GETBRMN
	LDS  R@0,@1+@2
	.ENDM

	.MACRO __GETWRMN
	LDS  R@0,@2+@3
	LDS  R@1,@2+@3+1
	.ENDM

	.MACRO __GETWRZ
	LDD  R@0,Z+@2
	LDD  R@1,Z+@2+1
	.ENDM

	.MACRO __GETD2Z
	LDD  R26,Z+@0
	LDD  R27,Z+@0+1
	LDD  R24,Z+@0+2
	LDD  R25,Z+@0+3
	.ENDM

	.MACRO __GETB2MN
	LDS  R26,@0+@1
	.ENDM

	.MACRO __GETW2MN
	LDS  R26,@0+@1
	LDS  R27,@0+@1+1
	.ENDM

	.MACRO __GETD2MN
	LDS  R26,@0+@1
	LDS  R27,@0+@1+1
	LDS  R24,@0+@1+2
	LDS  R25,@0+@1+3
	.ENDM

	.MACRO __PUTB1MN
	STS  @0+@1,R30
	.ENDM

	.MACRO __PUTW1MN
	STS  @0+@1,R30
	STS  @0+@1+1,R31
	.ENDM

	.MACRO __PUTD1MN
	STS  @0+@1,R30
	STS  @0+@1+1,R31
	STS  @0+@1+2,R22
	STS  @0+@1+3,R23
	.ENDM

	.MACRO __PUTDZ2
	STD  Z+@0,R26
	STD  Z+@0+1,R27
	STD  Z+@0+2,R24
	STD  Z+@0+3,R25
	.ENDM

	.MACRO __PUTBMRN
	STS  @0+@1,R@2
	.ENDM

	.MACRO __PUTWMRN
	STS  @0+@1,R@2
	STS  @0+@1+1,R@3
	.ENDM

	.MACRO __PUTBZR
	STD  Z+@1,R@0
	.ENDM

	.MACRO __PUTWZR
	STD  Z+@2,R@0
	STD  Z+@2+1,R@1
	.ENDM

	.MACRO __GETW1R
	MOV  R30,R@0
	MOV  R31,R@1
	.ENDM

	.MACRO __GETW2R
	MOV  R26,R@0
	MOV  R27,R@1
	.ENDM

	.MACRO __GETWRN
	LDI  R@0,LOW(@2)
	LDI  R@1,HIGH(@2)
	.ENDM

	.MACRO __PUTW1R
	MOV  R@0,R30
	MOV  R@1,R31
	.ENDM

	.MACRO __PUTW2R
	MOV  R@0,R26
	MOV  R@1,R27
	.ENDM

	.MACRO __ADDWRN
	SUBI R@0,LOW(-@2)
	SBCI R@1,HIGH(-@2)
	.ENDM

	.MACRO __ADDWRR
	ADD  R@0,R@2
	ADC  R@1,R@3
	.ENDM

	.MACRO __SUBWRN
	SUBI R@0,LOW(@2)
	SBCI R@1,HIGH(@2)
	.ENDM

	.MACRO __SUBWRR
	SUB  R@0,R@2
	SBC  R@1,R@3
	.ENDM

	.MACRO __ANDWRN
	ANDI R@0,LOW(@2)
	ANDI R@1,HIGH(@2)
	.ENDM

	.MACRO __ANDWRR
	AND  R@0,R@2
	AND  R@1,R@3
	.ENDM

	.MACRO __ORWRN
	ORI  R@0,LOW(@2)
	ORI  R@1,HIGH(@2)
	.ENDM

	.MACRO __ORWRR
	OR   R@0,R@2
	OR   R@1,R@3
	.ENDM

	.MACRO __EORWRR
	EOR  R@0,R@2
	EOR  R@1,R@3
	.ENDM

	.MACRO __GETWRS
	LDD  R@0,Y+@2
	LDD  R@1,Y+@2+1
	.ENDM

	.MACRO __PUTWSR
	STD  Y+@2,R@0
	STD  Y+@2+1,R@1
	.ENDM

	.MACRO __MOVEWRR
	MOV  R@0,R@2
	MOV  R@1,R@3
	.ENDM

	.MACRO __INWR
	IN   R@0,@2
	IN   R@1,@2+1
	.ENDM

	.MACRO __OUTWR
	OUT  @2+1,R@1
	OUT  @2,R@0
	.ENDM

	.MACRO __CALL1MN
	LDS  R30,@0+@1
	LDS  R31,@0+@1+1
	ICALL
	.ENDM


	.MACRO __CALL1FN
	LDI  R30,LOW(2*@0+@1)
	LDI  R31,HIGH(2*@0+@1)
	RCALL __GETW1PF
	ICALL
	.ENDM


	.MACRO __CALL2EN
	LDI  R26,LOW(@0+@1)
	LDI  R27,HIGH(@0+@1)
	RCALL __EEPROMRDW
	ICALL
	.ENDM


	.MACRO __GETW1STACK
	IN   R26,SPL
	IN   R27,SPH
	ADIW R26,@0+1
	LD   R30,X+
	LD   R31,X
	.ENDM

	.MACRO __NBST
	BST  R@0,@1
	IN   R30,SREG
	LDI  R31,0x40
	EOR  R30,R31
	OUT  SREG,R30
	.ENDM


	.MACRO __PUTB1SN
	LDD  R26,Y+@0
	LDD  R27,Y+@0+1
	SUBI R26,LOW(-@1)
	SBCI R27,HIGH(-@1)
	ST   X,R30
	.ENDM

	.MACRO __PUTW1SN
	LDD  R26,Y+@0
	LDD  R27,Y+@0+1
	SUBI R26,LOW(-@1)
	SBCI R27,HIGH(-@1)
	ST   X+,R30
	ST   X,R31
	.ENDM

	.MACRO __PUTD1SN
	LDD  R26,Y+@0
	LDD  R27,Y+@0+1
	SUBI R26,LOW(-@1)
	SBCI R27,HIGH(-@1)
	RCALL __PUTDP1
	.ENDM

	.MACRO __PUTB1SNS
	LDD  R26,Y+@0
	LDD  R27,Y+@0+1
	ADIW R26,@1
	ST   X,R30
	.ENDM

	.MACRO __PUTW1SNS
	LDD  R26,Y+@0
	LDD  R27,Y+@0+1
	ADIW R26,@1
	ST   X+,R30
	ST   X,R31
	.ENDM

	.MACRO __PUTD1SNS
	LDD  R26,Y+@0
	LDD  R27,Y+@0+1
	ADIW R26,@1
	RCALL __PUTDP1
	.ENDM

	.MACRO __PUTB1PMN
	LDS  R26,@0
	LDS  R27,@0+1
	SUBI R26,LOW(-@1)
	SBCI R27,HIGH(-@1)
	ST   X,R30
	.ENDM

	.MACRO __PUTW1PMN
	LDS  R26,@0
	LDS  R27,@0+1
	SUBI R26,LOW(-@1)
	SBCI R27,HIGH(-@1)
	ST   X+,R30
	ST   X,R31
	.ENDM

	.MACRO __PUTD1PMN
	LDS  R26,@0
	LDS  R27,@0+1
	SUBI R26,LOW(-@1)
	SBCI R27,HIGH(-@1)
	RCALL __PUTDP1
	.ENDM

	.MACRO __PUTB1PMNS
	LDS  R26,@0
	LDS  R27,@0+1
	ADIW R26,@1
	ST   X,R30
	.ENDM

	.MACRO __PUTW1PMNS
	LDS  R26,@0
	LDS  R27,@0+1
	ADIW R26,@1
	ST   X+,R30
	ST   X,R31
	.ENDM

	.MACRO __PUTD1PMNS
	LDS  R26,@0
	LDS  R27,@0+1
	ADIW R26,@1
	RCALL __PUTDP1
	.ENDM

	.MACRO __PUTB1RN
	MOVW R26,R@0
	SUBI R26,LOW(-@1)
	SBCI R27,HIGH(-@1)
	ST   X,R30
	.ENDM

	.MACRO __PUTW1RN
	MOVW R26,R@0
	SUBI R26,LOW(-@1)
	SBCI R27,HIGH(-@1)
	ST   X+,R30
	ST   X,R31
	.ENDM

	.MACRO __PUTD1RN
	MOVW R26,R@0
	SUBI R26,LOW(-@1)
	SBCI R27,HIGH(-@1)
	RCALL __PUTDP1
	.ENDM

	.MACRO __PUTB1RNS
	MOVW R26,R@0
	ADIW R26,@1
	ST   X,R30
	.ENDM

	.MACRO __PUTW1RNS
	MOVW R26,R@0
	ADIW R26,@1
	ST   X+,R30
	ST   X,R31
	.ENDM

	.MACRO __PUTD1RNS
	MOVW R26,R@0
	ADIW R26,@1
	RCALL __PUTDP1
	.ENDM

	.MACRO __PUTB1RON
	MOV  R26,R@0
	MOV  R27,R@1
	SUBI R26,LOW(-@2)
	SBCI R27,HIGH(-@2)
	ST   X,R30
	.ENDM

	.MACRO __PUTW1RON
	MOV  R26,R@0
	MOV  R27,R@1
	SUBI R26,LOW(-@2)
	SBCI R27,HIGH(-@2)
	ST   X+,R30
	ST   X,R31
	.ENDM

	.MACRO __PUTD1RON
	MOV  R26,R@0
	MOV  R27,R@1
	SUBI R26,LOW(-@2)
	SBCI R27,HIGH(-@2)
	RCALL __PUTDP1
	.ENDM

	.MACRO __PUTB1RONS
	MOV  R26,R@0
	MOV  R27,R@1
	ADIW R26,@2
	ST   X,R30
	.ENDM

	.MACRO __PUTW1RONS
	MOV  R26,R@0
	MOV  R27,R@1
	ADIW R26,@2
	ST   X+,R30
	ST   X,R31
	.ENDM

	.MACRO __PUTD1RONS
	MOV  R26,R@0
	MOV  R27,R@1
	ADIW R26,@2
	RCALL __PUTDP1
	.ENDM


	.MACRO __GETB1SX
	MOVW R30,R28
	SUBI R30,LOW(-@0)
	SBCI R31,HIGH(-@0)
	LD   R30,Z
	.ENDM

	.MACRO __GETW1SX
	MOVW R30,R28
	SUBI R30,LOW(-@0)
	SBCI R31,HIGH(-@0)
	LD   R0,Z+
	LD   R31,Z
	MOV  R30,R0
	.ENDM

	.MACRO __GETD1SX
	MOVW R30,R28
	SUBI R30,LOW(-@0)
	SBCI R31,HIGH(-@0)
	LD   R0,Z+
	LD   R1,Z+
	LD   R22,Z+
	LD   R23,Z
	MOVW R30,R0
	.ENDM

	.MACRO __GETB2SX
	MOVW R26,R28
	SUBI R26,LOW(-@0)
	SBCI R27,HIGH(-@0)
	LD   R26,X
	.ENDM

	.MACRO __GETW2SX
	MOVW R26,R28
	SUBI R26,LOW(-@0)
	SBCI R27,HIGH(-@0)
	LD   R0,X+
	LD   R27,X
	MOV  R26,R0
	.ENDM

	.MACRO __GETD2SX
	MOVW R26,R28
	SUBI R26,LOW(-@0)
	SBCI R27,HIGH(-@0)
	LD   R0,X+
	LD   R1,X+
	LD   R24,X+
	LD   R25,X
	MOVW R26,R0
	.ENDM

	.MACRO __GETBRSX
	MOVW R30,R28
	SUBI R30,LOW(-@1)
	SBCI R31,HIGH(-@1)
	LD   R@0,Z
	.ENDM

	.MACRO __GETWRSX
	MOVW R30,R28
	SUBI R30,LOW(-@2)
	SBCI R31,HIGH(-@2)
	LD   R@0,Z+
	LD   R@1,Z
	.ENDM

	.MACRO __LSLW8SX
	MOVW R30,R28
	SUBI R30,LOW(-@0)
	SBCI R31,HIGH(-@0)
	LD   R31,Z
	CLR  R30
	.ENDM

	.MACRO __PUTB1SX
	MOVW R26,R28
	SUBI R26,LOW(-@0)
	SBCI R27,HIGH(-@0)
	ST   X,R30
	.ENDM

	.MACRO __PUTW1SX
	MOVW R26,R28
	SUBI R26,LOW(-@0)
	SBCI R27,HIGH(-@0)
	ST   X+,R30
	ST   X,R31
	.ENDM

	.MACRO __PUTD1SX
	MOVW R26,R28
	SUBI R26,LOW(-@0)
	SBCI R27,HIGH(-@0)
	ST   X+,R30
	ST   X+,R31
	ST   X+,R22
	ST   X,R23
	.ENDM

	.MACRO __CLRW1SX
	MOVW R30,R28
	SUBI R30,LOW(-@0)
	SBCI R31,HIGH(-@0)
	CLR  R0
	ST   Z+,R0
	ST   Z,R0
	.ENDM

	.MACRO __CLRD1SX
	MOVW R30,R28
	SUBI R30,LOW(-@0)
	SBCI R31,HIGH(-@0)
	CLR  R0
	ST   Z+,R0
	ST   Z+,R0
	ST   Z+,R0
	ST   Z,R0
	.ENDM

	.MACRO __PUTB2SX
	MOVW R30,R28
	SUBI R30,LOW(-@0)
	SBCI R31,HIGH(-@0)
	ST   Z,R26
	.ENDM

	.MACRO __PUTW2SX
	MOVW R30,R28
	SUBI R30,LOW(-@0)
	SBCI R31,HIGH(-@0)
	ST   Z+,R26
	ST   Z,R27
	.ENDM

	.MACRO __PUTBSRX
	MOVW R30,R28
	SUBI R30,LOW(-@0)
	SBCI R31,HIGH(-@0)
	ST   Z,R@1
	.ENDM

	.MACRO __PUTWSRX
	MOVW R30,R28
	SUBI R30,LOW(-@2)
	SBCI R31,HIGH(-@2)
	ST   Z+,R@0
	ST   Z,R@1
	.ENDM

	.MACRO __PUTB1SNX
	MOVW R26,R28
	SUBI R26,LOW(-@0)
	SBCI R27,HIGH(-@0)
	LD   R0,X+
	LD   R27,X
	MOV  R26,R0
	SUBI R26,LOW(-@1)
	SBCI R27,HIGH(-@1)
	ST   X,R30
	.ENDM

	.MACRO __PUTW1SNX
	MOVW R26,R28
	SUBI R26,LOW(-@0)
	SBCI R27,HIGH(-@0)
	LD   R0,X+
	LD   R27,X
	MOV  R26,R0
	SUBI R26,LOW(-@1)
	SBCI R27,HIGH(-@1)
	ST   X+,R30
	ST   X,R31
	.ENDM

	.MACRO __PUTD1SNX
	MOVW R26,R28
	SUBI R26,LOW(-@0)
	SBCI R27,HIGH(-@0)
	LD   R0,X+
	LD   R27,X
	MOV  R26,R0
	SUBI R26,LOW(-@1)
	SBCI R27,HIGH(-@1)
	ST   X+,R30
	ST   X+,R31
	ST   X+,R22
	ST   X,R23
	.ENDM

	.MACRO __MULBRR
	MULS R@0,R@1
	MOV  R30,R0
	.ENDM

	.MACRO __MULBRRU
	MUL  R@0,R@1
	MOV  R30,R0
	.ENDM

	.CSEG
	.ORG 0

	.INCLUDE "ADC.vec"
	.INCLUDE "ADC.inc"

__RESET:
	CLI
	CLR  R30
	OUT  EECR,R30

;INTERRUPT VECTORS ARE PLACED
;AT THE START OF FLASH
	LDI  R31,1
	OUT  GICR,R31
	OUT  GICR,R30
	OUT  MCUCR,R30

;DISABLE WATCHDOG
	LDI  R31,0x18
	OUT  WDTCR,R31
	OUT  WDTCR,R30

;CLEAR R2-R14
	LDI  R24,13
	LDI  R26,2
	CLR  R27
__CLEAR_REG:
	ST   X+,R30
	DEC  R24
	BRNE __CLEAR_REG

;CLEAR SRAM
	LDI  R24,LOW(0x400)
	LDI  R25,HIGH(0x400)
	LDI  R26,0x60
__CLEAR_SRAM:
	ST   X+,R30
	SBIW R24,1
	BRNE __CLEAR_SRAM

;GLOBAL VARIABLES INITIALIZATION
	LDI  R30,LOW(__GLOBAL_INI_TBL*2)
	LDI  R31,HIGH(__GLOBAL_INI_TBL*2)
__GLOBAL_INI_NEXT:
	LPM  R24,Z+
	LPM  R25,Z+
	SBIW R24,0
	BREQ __GLOBAL_INI_END
	LPM  R26,Z+
	LPM  R27,Z+
	LPM  R0,Z+
	LPM  R1,Z+
	MOVW R22,R30
	MOVW R30,R0
__GLOBAL_INI_LOOP:
	LPM  R0,Z+
	ST   X+,R0
	SBIW R24,1
	BRNE __GLOBAL_INI_LOOP
	MOVW R30,R22
	RJMP __GLOBAL_INI_NEXT
__GLOBAL_INI_END:

;STACK POINTER INITIALIZATION
	LDI  R30,LOW(0x45F)
	OUT  SPL,R30
	LDI  R30,HIGH(0x45F)
	OUT  SPH,R30

;DATA STACK POINTER INITIALIZATION
	LDI  R28,LOW(0x160)
	LDI  R29,HIGH(0x160)

	RJMP _main

	.ESEG
	.ORG 0

	.DSEG
	.ORG 0x160
;       1 /*********************************************
;       2 Project : 
;       3 Version : 
;       4 Date    : 2008-11-08
;       5 Author  : Caijianqiang                    
;       6 Company :                                 
;       7 Comments: 
;       8 
;       9 
;      10 Chip type           : ATmega8
;      11 Program type        : Application
;      12 Clock frequency     : 8.000000 MHz
;      13 Memory model        : Small
;      14 External SRAM size  : 0
;      15 Data Stack size     : 256
;      16 *********************************************/
;      17 
;      18 #include <mega8.h>
;      19 #include <delay.h>
;      20 #include <math.h>
;      21 
;      22 #define ADC_VREF_TYPE 0x00
;      23 
;      24 /*----------------------------*/
;      25 /*    define PORT variable    */
;      26 /*----------------------------*/
;      27 #define SDATA PORTD.5
;      28 #define SCLK  PORTD.6
;      29 #define LOAD  PORTD.7
;      30 
;      31 /*------------------------*/
;      32 /*    define code data    */
;      33 /*------------------------*/
;      34 flash  char led[20]={0xc0,0xf9,0xa4,0xb0,0x99,	/* 0 1 2 3 4 */

	.CSEG
;      35                      0x92,0x82,0xf8,0x80,0x90,	/* 5 6 7 8 9 */
;      36                      0x88,0x83,0xc6,0xa1,0x86,	/* A B C D E */
;      37                      0x8e,0x89,0x8c,0xbf,0xff};	/* F H P -   */
;      38 
;      39 /*----------------------------*/
;      40 /*    define data variable    */
;      41 /*----------------------------*/
;      42 
;      43 // Declare your global variables here
;      44 unsigned char ds[4];

	.DSEG
_ds:
	.BYTE 0x4
;      45 unsigned int  adc0,adc1,adc2;
;      46 unsigned char Ms1000;
;      47 
;      48 /*-----------------*/
;      49 /*    Functions    */
;      50 /*-----------------*/
;      51 
;      52 // Timer 1 overflow interrupt service routine
;      53 interrupt [TIM1_OVF] void timer1_ovf_isr(void)
;      54 {

	.CSEG
_timer1_ovf_isr:
	ST   -Y,R30
;      55  // Reinitialize Timer 1 value
;      56  TCNT1H=0x85;
	RCALL SUBOPT_0x0
;      57  TCNT1L=0xEE;
;      58  // Place your code here
;      59  Ms1000=1;
	LDI  R30,LOW(1)
	MOV  R10,R30
;      60 }
	LD   R30,Y+
	RETI
;      61 
;      62 /*--------------------------------------*/
;      63 void put_led(void)
;      64 {
_put_led:
;      65  unsigned char i,j,ch;
;      66  
;      67  for(i=4;i>0;i--)
	RCALL __SAVELOCR3
;	i -> R16
;	j -> R17
;	ch -> R18
	LDI  R16,LOW(4)
_0x4:
	LDI  R30,LOW(0)
	CP   R30,R16
	BRSH _0x5
;      68  {
;      69   ch=led[ds[i-1]];
	LDI  R26,LOW(_led*2)
	LDI  R27,HIGH(_led*2)
	MOV  R30,R16
	SUBI R30,LOW(1)
	LDI  R31,0
	SUBI R30,LOW(-_ds)
	SBCI R31,HIGH(-_ds)
	LD   R30,Z
	LDI  R31,0
	ADD  R30,R26
	ADC  R31,R27
	LPM  R18,Z
;      70   for(j=0;j<8;j++)
	LDI  R17,LOW(0)
_0x7:
	CPI  R17,8
	BRSH _0x8
;      71   {
;      72    if(ch&0x80) SDATA=1; else SDATA=0;
	SBRS R18,7
	RJMP _0x9
	SBI  0x12,5
	RJMP _0xA
_0x9:
	CBI  0x12,5
;      73    SCLK=0;
_0xA:
	CBI  0x12,6
;      74    ch=ch<<1;
	LSL  R18
;      75    SCLK=1;
	SBI  0x12,6
;      76   } 
	SUBI R17,-1
	RJMP _0x7
_0x8:
;      77  }
	SUBI R16,1
	RJMP _0x4
_0x5:
;      78 }
	RCALL __LOADLOCR3
	ADIW R28,3
	RET
;      79 
;      80 /*--------------------------------------*/
;      81 void DispTemp(unsigned int val)
;      82 {
_DispTemp:
;      83  float temp;
;      84  unsigned int k;
;      85  
;      86  temp=val;
	SBIW R28,4
	RCALL __SAVELOCR2
;	val -> Y+6
;	temp -> Y+2
;	k -> R16,R17
	LDD  R30,Y+6
	LDD  R31,Y+6+1
	CLR  R22
	CLR  R23
	RCALL __CDF1
	RCALL SUBOPT_0x1
;      87  temp=(temp-96)/7.6273;
	__GETD1N 0x42C00000
	RCALL SUBOPT_0x2
	MOVW R26,R30
	MOVW R24,R22
	__GETD1N 0x40F412D7
	RCALL __DIVF21
	RCALL SUBOPT_0x1
;      88  if(temp<0)
	RCALL __CPD20
	BRGE _0xB
;      89  {
;      90   k=0-(temp*10-0.5);
	RCALL SUBOPT_0x3
	MOVW R26,R30
	MOVW R24,R22
	__GETD1N 0x3F000000
	RCALL SUBOPT_0x2
	__GETD2N 0x0
	RCALL SUBOPT_0x2
	RCALL SUBOPT_0x4
;      91   ds[0]=18;				// -符号
	LDI  R30,LOW(18)
	RCALL SUBOPT_0x5
;      92   ds[1]=k/100;
	RCALL SUBOPT_0x6
	__PUTB1MN _ds,1
;      93   k=k%100;
	RCALL SUBOPT_0x7
;      94   ds[2]=k/10;
	__PUTB1MN _ds,2
;      95   ds[3]=k%10;
	RCALL SUBOPT_0x8
	__PUTB1MN _ds,3
;      96  }
;      97  else
	RJMP _0xC
_0xB:
;      98  {
;      99   k=temp*10+0.5;
	RCALL SUBOPT_0x3
	__GETD2N 0x3F000000
	RCALL __ADDF12
	RCALL SUBOPT_0x4
;     100   ds[0]=k/1000;
	__GETW2R 16,17
	LDI  R30,LOW(1000)
	LDI  R31,HIGH(1000)
	RCALL __DIVW21U
	RCALL SUBOPT_0x5
;     101   k=k%1000;
	LDI  R30,LOW(1000)
	LDI  R31,HIGH(1000)
	RCALL __MODW21U
	__PUTW1R 16,17
;     102   ds[1]=k/100;
	__GETW2R 16,17
	RCALL SUBOPT_0x6
	__PUTB1MN _ds,1
;     103   k=k%100;
	RCALL SUBOPT_0x7
;     104   ds[2]=k/10;
	__PUTB1MN _ds,2
;     105   ds[3]=k%10; 
	RCALL SUBOPT_0x8
	__PUTB1MN _ds,3
;     106  }
_0xC:
;     107   
;     108  put_led();
	RCALL _put_led
;     109  LOAD=1;
	SBI  0x12,7
;     110  LOAD=0;
	CBI  0x12,7
;     111 }
	RCALL __LOADLOCR2
	ADIW R28,8
	RET
;     112 
;     113 /*--------------------------------------*/
;     114 // Read the AD conversion result
;     115 unsigned int read_adc(unsigned char adc_input)
;     116 {
_read_adc:
;     117  ADMUX=adc_input|ADC_VREF_TYPE;
	LD   R30,Y
	OUT  0x7,R30
;     118  // Start the AD conversion
;     119  ADCSRA|=0x40;
	SBI  0x6,6
;     120  // Wait for the AD conversion to complete
;     121  while ((ADCSRA & 0x10)==0);
_0xD:
	SBIS 0x6,4
	RJMP _0xD
;     122  ADCSRA|=0x10;
	SBI  0x6,4
;     123  return ADCW;
	IN   R30,0x4
	IN   R31,0x4+1
	ADIW R28,1
	RET
;     124 }
;     125 
;     126 /*--------------------------------------*/
;     127 void main(void)
;     128 {
_main:
;     129  // Declare your local variables here
;     130 
;     131  // Input/Output Ports initialization
;     132  // Port B initialization
;     133  // Func0=In Func1=In Func2=In Func3=In Func4=In Func5=In Func6=In Func7=In 
;     134  // State0=T State1=T State2=T State3=T State4=T State5=T State6=T State7=T 
;     135  PORTB=0x00;
	LDI  R30,LOW(0)
	OUT  0x18,R30
;     136  DDRB=0x00;
	OUT  0x17,R30
;     137 
;     138  // Port C initialization
;     139  // Func0=In Func1=In Func2=In Func3=In Func4=In Func5=In Func6=In 
;     140  // State0=T State1=T State2=T State3=T State4=T State5=T State6=T 
;     141  PORTC=0x00;
	OUT  0x15,R30
;     142  DDRC=0x00; 
	OUT  0x14,R30
;     143 
;     144  // Port D initialization
;     145  // Func0=In Func1=In Func2=In Func3=In Func4=In Func5=In Func6=In Func7=In 
;     146  // State0=T State1=T State2=T State3=T State4=T State5=T State6=T State7=T 
;     147  PORTD=0x7f;
	LDI  R30,LOW(127)
	OUT  0x12,R30
;     148  DDRD=0xff; 
	LDI  R30,LOW(255)
	OUT  0x11,R30
;     149 
;     150  // Timer/Counter 0 initialization
;     151  // Clock source: System Clock
;     152  // Clock value: Timer 0 Stopped
;     153  TCCR0=0x00;
	LDI  R30,LOW(0)
	OUT  0x33,R30
;     154  TCNT0=0x00;
	OUT  0x32,R30
;     155 
;     156  // Timer/Counter 1 initialization
;     157  // Clock source: System Clock
;     158  // Clock value: 31.250 kHz
;     159  // Mode: Normal top=FFFFh
;     160  // OC1A output: Discon.
;     161  // OC1B output: Discon.
;     162  // Noise Canceler: Off
;     163  // Input Capture on Falling Edge
;     164  // Timer 1 Overflow Interrupt: On
;     165  // Input Capture Interrupt: Off
;     166  // Compare A Match Interrupt: Off
;     167  // Compare B Match Interrupt: Off
;     168  TCCR1A=0x00;
	OUT  0x2F,R30
;     169  TCCR1B=0x04;
	LDI  R30,LOW(4)
	OUT  0x2E,R30
;     170  TCNT1H=0x85;
	RCALL SUBOPT_0x0
;     171  TCNT1L=0xEE;
;     172  ICR1H=0x00;
	LDI  R30,LOW(0)
	OUT  0x27,R30
;     173  ICR1L=0x00;
	OUT  0x26,R30
;     174  OCR1AH=0x00;
	OUT  0x2B,R30
;     175  OCR1AL=0x00;
	OUT  0x2A,R30
;     176  OCR1BH=0x00;
	OUT  0x29,R30
;     177  OCR1BL=0x00;
	OUT  0x28,R30
;     178 
;     179  // Timer/Counter 2 initialization
;     180  // Clock source: System Clock
;     181  // Clock value: Timer 2 Stopped
;     182  // Mode: Normal top=FFh
;     183  // OC2 output: Disconnected
;     184  ASSR=0x00;
	OUT  0x22,R30
;     185  TCCR2=0x00;
	OUT  0x25,R30
;     186  TCNT2=0x00;
	OUT  0x24,R30
;     187  OCR2=0x00; 
	OUT  0x23,R30
;     188 
;     189  // External Interrupt(s) initialization
;     190  // INT0: Off
;     191  // INT1: Off
;     192  MCUCR=0x00; 
	OUT  0x35,R30
;     193 
;     194  // Timer(s)/Counter(s) Interrupt(s) initialization
;     195  TIMSK=0x04;
	LDI  R30,LOW(4)
	OUT  0x39,R30
;     196 
;     197  // Analog Comparator initialization
;     198  // Analog Comparator: Off
;     199  // Analog Comparator Input Capture by Timer/Counter 1: Off
;     200  // Analog Comparator Output: Off
;     201  ACSR=0x80;
	LDI  R30,LOW(128)
	OUT  0x8,R30
;     202  SFIOR=0x00;
	LDI  R30,LOW(0)
	OUT  0x30,R30
;     203 
;     204  // ADC initialization
;     205  // ADC Clock frequency: 125.000 kHz
;     206  // ADC Voltage Reference: AREF pin
;     207  // ADC High Speed Mode: Off
;     208  // ADC Auto Trigger Source: None
;     209  ADMUX=ADC_VREF_TYPE;
	OUT  0x7,R30
;     210  ADCSRA=0x86;
	LDI  R30,LOW(134)
	OUT  0x6,R30
;     211  SFIOR&=0xEF; 
	IN   R30,0x30
	ANDI R30,0xEF
	OUT  0x30,R30
;     212 
;     213  // Global enable interrupts
;     214  #asm("sei")
	sei
;     215 
;     216  while (1)
_0x10:
;     217  {
;     218   // Place your code here
;     219  
;     220   if(Ms1000)
	TST  R10
	BREQ _0x13
;     221   {
;     222    Ms1000=0;
	CLR  R10
;     223    adc1=read_adc(1);		// 采集通道1数据
	LDI  R30,LOW(1)
	ST   -Y,R30
	RCALL _read_adc
	__PUTW1R 6,7
;     224    DispTemp(adc1);			// 显示温度
	ST   -Y,R7
	ST   -Y,R6
	RCALL _DispTemp
;     225   }
;     226  };
_0x13:
	RJMP _0x10
;     227 }
_0x14:
	RJMP _0x14


;OPTIMIZER ADDED SUBROUTINE, CALLED 2 TIMES
SUBOPT_0x0:
	LDI  R30,LOW(133)
	OUT  0x2D,R30
	LDI  R30,LOW(238)
	OUT  0x2C,R30
	RET

;OPTIMIZER ADDED SUBROUTINE, CALLED 2 TIMES
SUBOPT_0x1:
	__PUTD1S 2
	__GETD2S 2
	RET

;OPTIMIZER ADDED SUBROUTINE, CALLED 3 TIMES
SUBOPT_0x2:
	RCALL __SWAPD12
	RCALL __SUBF12
	RET

;OPTIMIZER ADDED SUBROUTINE, CALLED 2 TIMES
SUBOPT_0x3:
	__GETD2S 2
	__GETD1N 0x41200000
	RCALL __MULF12
	RET

;OPTIMIZER ADDED SUBROUTINE, CALLED 2 TIMES
SUBOPT_0x4:
	RCALL __CFD1
	__PUTW1R 16,17
	RET

;OPTIMIZER ADDED SUBROUTINE, CALLED 2 TIMES
SUBOPT_0x5:
	STS  _ds,R30
	__GETW2R 16,17
	RET

;OPTIMIZER ADDED SUBROUTINE, CALLED 2 TIMES
SUBOPT_0x6:
	LDI  R30,LOW(100)
	LDI  R31,HIGH(100)
	RCALL __DIVW21U
	RET

;OPTIMIZER ADDED SUBROUTINE, CALLED 2 TIMES
SUBOPT_0x7:
	__GETW2R 16,17
	LDI  R30,LOW(100)
	LDI  R31,HIGH(100)
	RCALL __MODW21U
	__PUTW1R 16,17
	__GETW2R 16,17
	LDI  R30,LOW(10)
	LDI  R31,HIGH(10)
	RCALL __DIVW21U
	RET

;OPTIMIZER ADDED SUBROUTINE, CALLED 2 TIMES
SUBOPT_0x8:
	__GETW2R 16,17
	LDI  R30,LOW(10)
	LDI  R31,HIGH(10)
	RCALL __MODW21U
	RET

__ANEGD1:
	COM  R30
	COM  R31
	COM  R22
	COM  R23
	SUBI R30,-1
	SBCI R31,-1
	SBCI R22,-1
	SBCI R23,-1
	RET

__CWD1:
	MOV  R22,R31
	ADD  R22,R22
	SBC  R22,R22
	MOV  R23,R22
	RET

__DIVW21U:
	CLR  R0
	CLR  R1
	LDI  R25,16
__DIVW21U1:
	LSL  R26
	ROL  R27
	ROL  R0
	ROL  R1
	SUB  R0,R30
	SBC  R1,R31
	BRCC __DIVW21U2
	ADD  R0,R30
	ADC  R1,R31
	RJMP __DIVW21U3
__DIVW21U2:
	SBR  R26,1
__DIVW21U3:
	DEC  R25
	BRNE __DIVW21U1
	MOVW R30,R26
	MOVW R26,R0
	RET

__MODW21U:
	RCALL __DIVW21U
	MOVW R30,R26
	RET

__SWAPD12:
	MOV  R1,R24
	MOV  R24,R22
	MOV  R22,R1
	MOV  R1,R25
	MOV  R25,R23
	MOV  R23,R1

__SWAPW12:
	MOV  R1,R27
	MOV  R27,R31
	MOV  R31,R1

__SWAPB12:
	MOV  R1,R26
	MOV  R26,R30
	MOV  R30,R1
	RET

__REPACK:
	LDI  R21,0x80
	EOR  R21,R23
	BRNE __REPACK0
	PUSH R21
	RJMP __ZERORES
__REPACK0:
	CPI  R21,0xFF
	BREQ __REPACK1
	LSL  R22
	LSL  R0
	ROR  R21
	ROR  R22
	MOV  R23,R21
	RET
__REPACK1:
	PUSH R21
	TST  R0
	BRMI __REPACK2
	RJMP __MAXRES
__REPACK2:
	RJMP __MINRES

__UNPACK:
	LDI  R21,0x80
	MOV  R1,R25
	AND  R1,R21
	LSL  R24
	ROL  R25
	EOR  R25,R21
	LSL  R21
	ROR  R24

__UNPACK1:
	LDI  R21,0x80
	MOV  R0,R23
	AND  R0,R21
	LSL  R22
	ROL  R23
	EOR  R23,R21
	LSL  R21
	ROR  R22
	RET

__CFD1:
	PUSH R21
	RCALL __UNPACK1
	CPI  R23,0x80
	BRLO __CFD10
	CPI  R23,0xFF
	BRCC __CFD10
	RJMP __ZERORES
__CFD10:
	LDI  R21,22
	SUB  R21,R23
	BRPL __CFD11
	NEG  R21
	CPI  R21,8
	BRLO __CFD17
	SER  R30
	SER  R31
	SER  R22
	LDI  R23,0x7F
	RJMP __CFD15
__CFD17:
	CLR  R23
	TST  R21
	BREQ __CFD15
__CFD18:
	LSL  R30
	ROL  R31
	ROL  R22
	ROL  R23
	DEC  R21
	BRNE __CFD18
	RJMP __CFD15
__CFD11:
	CLR  R23
__CFD12:
	CPI  R21,8
	BRLO __CFD13
	MOV  R30,R31
	MOV  R31,R22
	MOV  R22,R23
	SUBI R21,8
	RJMP __CFD12
__CFD13:
	TST  R21
	BREQ __CFD15
__CFD14:
	LSR  R23
	ROR  R22
	ROR  R31
	ROR  R30
	DEC  R21
	BRNE __CFD14
__CFD15:
	TST  R0
	BRPL __CFD16
	RCALL __ANEGD1
__CFD16:
	POP  R21
	RET

__CDF1U:
	SET
	RJMP __CDF1U0
__CDF1:
	CLT
__CDF1U0:
	SBIW R30,0
	SBCI R22,0
	SBCI R23,0
	BREQ __CDF10
	CLR  R0
	BRTS __CDF11
	TST  R23
	BRPL __CDF11
	COM  R0
	RCALL __ANEGD1
__CDF11:
	MOV  R1,R23
	LDI  R23,30
	TST  R1
__CDF12:
	BRMI __CDF13
	DEC  R23
	LSL  R30
	ROL  R31
	ROL  R22
	ROL  R1
	RJMP __CDF12
__CDF13:
	MOV  R30,R31
	MOV  R31,R22
	MOV  R22,R1
	PUSH R21
	RCALL __REPACK
	POP  R21
__CDF10:
	RET

__SWAPACC:
	MOV  R21,R30
	MOV  R30,R26
	MOV  R26,R21
	MOV  R21,R31
	MOV  R31,R27
	MOV  R27,R21
	MOV  R21,R22
	MOV  R22,R24
	MOV  R24,R21
	MOV  R21,R23
	MOV  R23,R25
	MOV  R25,R21
	MOV  R21,R0
	MOV  R0,R1
	MOV  R1,R21
	RET

__UADD12:
	ADD  R30,R26
	ADC  R31,R27
	ADC  R22,R24
	RET

__NEGMAN1:
	COM  R30
	COM  R31
	COM  R22
	SUBI R30,-1
	SBCI R31,-1
	SBCI R22,-1
	RET

__SUBF12:
	PUSH R21
	RCALL __UNPACK
	CPI  R25,0x80
	BREQ __ADDF129
	LDI  R21,0x80
	EOR  R1,R21

	RJMP __ADDF120

__ADDF12:
	PUSH R21
	RCALL __UNPACK
	CPI  R25,0x80
	BREQ __ADDF129

__ADDF120:
	CPI  R23,0x80
	BREQ __ADDF128
__ADDF121:
	MOV  R21,R23
	SUB  R21,R25
	BRVS __ADDF129
	BRPL __ADDF122
	RCALL __SWAPACC
	RJMP __ADDF121
__ADDF122:
	CPI  R21,24
	BRLO __ADDF123
	CLR  R26
	CLR  R27
	CLR  R24
__ADDF123:
	CPI  R21,8
	BRLO __ADDF124
	MOV  R26,R27
	MOV  R27,R24
	CLR  R24
	SUBI R21,8
	RJMP __ADDF123
__ADDF124:
	TST  R21
	BREQ __ADDF126
__ADDF125:
	LSR  R24
	ROR  R27
	ROR  R26
	DEC  R21
	BRNE __ADDF125
__ADDF126:
	MOV  R21,R0
	EOR  R21,R1
	BRMI __ADDF127
	RCALL __UADD12
	BRCC __ADDF129
	ROR  R22
	ROR  R31
	ROR  R30
	INC  R23
	BRVC __ADDF129
	RJMP __MAXRES
__ADDF128:
	RCALL __SWAPACC
__ADDF129:
	RCALL __REPACK
	POP  R21
	RET
__ADDF127:
	SUB  R30,R26
	SBC  R31,R27
	SBC  R22,R24
	BREQ __ZERORES
	BRCC __ADDF1210
	COM  R0
	RCALL __NEGMAN1
__ADDF1210:
	TST  R22
	BRMI __ADDF129
	LSL  R30
	ROL  R31
	ROL  R22
	DEC  R23
	BRVC __ADDF1210

__MINRES:
	SER  R30
	SER  R31
	LDI  R22,0x7F
	SER  R23
	POP  R21
	RET

__ZERORES:
	CLR  R30
	CLR  R31
	CLR  R22
	CLR  R23
	POP  R21
	RET

__MAXRES:
	SER  R30
	SER  R31
	LDI  R22,0x7F
	LDI  R23,0x7F
	POP  R21
	RET

__MULF12:
	PUSH R21
	RCALL __UNPACK
	CPI  R23,0x80
	BREQ __ZERORES
	CPI  R25,0x80
	BREQ __ZERORES
	EOR  R0,R1
	SEC
	ADC  R23,R25
	BRVC __MULF124
	BRLT __ZERORES
__MULF125:
	TST  R0
	BRMI __MINRES
	RJMP __MAXRES
__MULF124:
	PUSH R19
	PUSH R20
	CLR  R1
	CLR  R19
	CLR  R20
	CLR  R21
	LDI  R25,24
__MULF120:
	LSL  R19
	ROL  R20
	ROL  R21
	ROL  R30
	ROL  R31
	ROL  R22
	BRCC __MULF121
	ADD  R19,R26
	ADC  R20,R27
	ADC  R21,R24
	ADC  R30,R1
	ADC  R31,R1
	ADC  R22,R1
__MULF121:
	DEC  R25
	BRNE __MULF120
	POP  R20
	POP  R19
	TST  R22
	BRMI __MULF122
	LSL  R21
	ROL  R30
	ROL  R31
	ROL  R22
	RJMP __MULF123
__MULF122:
	INC  R23
	BRVS __MULF125
__MULF123:
	RCALL __REPACK
	POP  R21
	RET

__DIVF21:
	PUSH R21
	RCALL __UNPACK
	CPI  R23,0x80
	BRNE __DIVF210
	TST  R1
__DIVF211:
	BRPL __MAXRES
	RJMP __MINRES
__DIVF210:
	CPI  R25,0x80
	BRNE __DIVF218
__DIVF217:
	RJMP __ZERORES
__DIVF218:
	EOR  R0,R1
	SEC
	SBC  R25,R23
	BRVC __DIVF216
	BRLT __DIVF217
	TST  R0
	RJMP __DIVF211
__DIVF216:
	MOV  R23,R25
	LSR  R22
	ROR  R31
	ROR  R30
	LSR  R24
	ROR  R27
	ROR  R26
	PUSH R20
	CLR  R1
	CLR  R20
	CLR  R21
	LDI  R25,24
__DIVF212:
	CP   R26,R30
	CPC  R27,R31
	CPC  R24,R22
	BRLO __DIVF213
	SUB  R26,R30
	SBC  R27,R31
	SBC  R24,R22
	SEC
	RJMP __DIVF214
__DIVF213:
	CLC
__DIVF214:
	ROL  R1
	ROL  R20
	ROL  R21
	ROL  R26
	ROL  R27
	ROL  R24
	DEC  R25
	BRNE __DIVF212
	MOV  R30,R1
	MOV  R31,R20
	MOV  R22,R21
	LSR  R26
	ADC  R30,R25
	ADC  R31,R25
	ADC  R22,R25
	POP  R20
	TST  R22
	BRMI __DIVF215
	LSL  R30
	ROL  R31
	ROL  R22
	DEC  R23
	BRVS __DIVF217
__DIVF215:
	RCALL __REPACK
	POP  R21
	RET

__CPD20:
	SBIW R26,0
	SBCI R24,0
	SBCI R25,0
	RET

__SAVELOCR3:
	ST   -Y,R18
__SAVELOCR2:
	ST   -Y,R17
	ST   -Y,R16
	RET

__LOADLOCR3:
	LDD  R18,Y+2
__LOADLOCR2:
	LDD  R17,Y+1
	LD   R16,Y
	RET

;END OF CODE MARKER
__END_OF_CODE:
